target datalayout = "e-m:e-p270:32:32-p271:32:32-p272:64:64-i64:64-i128:128-f80:128-n8:16:32:64-S128"
target triple = "x86_64-unknown-linux-gnu"

%"class.icu_75::LocalUResourceBundlePointer" = type { %"class.icu_75::LocalPointerBase" }
%"class.icu_75::LocalPointerBase" = type { ptr }
%"class.icu_75::ResourceSink" = type { %"class.icu_75::UObject" }
%"class.icu_75::UObject" = type { ptr }
%"class.icu_75::units::(anonymous namespace)::UnitPreferencesSink" = type { %"class.icu_75::ResourceSink", ptr, ptr }
%"class.icu_75::units::UnitPreferences" = type { %"class.icu_75::MaybeStackVector.1", %"class.icu_75::MaybeStackVector.4" }
%"class.icu_75::MaybeStackVector.1" = type { %"class.icu_75::MemoryPool.2" }
%"class.icu_75::MemoryPool.2" = type { i32, %"class.icu_75::MaybeStackArray.3" }
%"class.icu_75::MaybeStackArray.3" = type { ptr, i32, i8, [8 x ptr] }
%"class.icu_75::MaybeStackVector.4" = type { %"class.icu_75::MemoryPool.5" }
%"class.icu_75::MemoryPool.5" = type { i32, %"class.icu_75::MaybeStackArray.6" }
%"class.icu_75::MaybeStackArray.6" = type { ptr, i32, i8, [8 x ptr] }

@.str = private unnamed_addr constant [6 x i8] c"units\00", align 1
@.str.2 = private unnamed_addr constant [19 x i8] c"unitPreferenceData\00", align 1
@_ZTVN6icu_7512ResourceSinkE = external unnamed_addr constant { [6 x ptr] }, align 8
@_ZTVN6icu_757UObjectE = external unnamed_addr constant { [5 x ptr] }, align 8

; Function Attrs: mustprogress nounwind uwtable
define linkonce_odr void @_ZN6icu_757UObjectC2Ev(ptr noundef nonnull align 8 dereferenceable(8) %this) unnamed_addr #0 comdat align 2 {
entry:
  %this.addr = alloca ptr, align 8
  store ptr %this, ptr %this.addr, align 8
  %this1 = load ptr, ptr %this.addr, align 8
  store ptr getelementptr inbounds ({ [5 x ptr] }, ptr @_ZTVN6icu_757UObjectE, i32 0, i32 0, i32 2), ptr %this1, align 8
  ret void
}

; Function Attrs: mustprogress nounwind uwtable
define linkonce_odr void @_ZN6icu_7515MaybeStackArrayIPNS_5units14UnitPreferenceELi8EEC2Ev(ptr noundef nonnull align 8 dereferenceable(80) %this) unnamed_addr #0 comdat align 2 {
entry:
  %this.addr = alloca ptr, align 8
  store ptr %this, ptr %this.addr, align 8
  %this1 = load ptr, ptr %this.addr, align 8
  %ptr = getelementptr inbounds %"class.icu_75::MaybeStackArray.6", ptr %this1, i32 0, i32 0
  %stackArray = getelementptr inbounds %"class.icu_75::MaybeStackArray.6", ptr %this1, i32 0, i32 3
  %arraydecay = getelementptr inbounds [8 x ptr], ptr %stackArray, i64 0, i64 0
  store ptr %arraydecay, ptr %ptr, align 8
  %capacity = getelementptr inbounds %"class.icu_75::MaybeStackArray.6", ptr %this1, i32 0, i32 1
  store i32 8, ptr %capacity, align 8
  %needToRelease = getelementptr inbounds %"class.icu_75::MaybeStackArray.6", ptr %this1, i32 0, i32 2
  store i8 0, ptr %needToRelease, align 4
  ret void
}

; Function Attrs: mustprogress nounwind uwtable
define linkonce_odr void @_ZN6icu_7515MaybeStackArrayIPNS_5units22UnitPreferenceMetadataELi8EEC2Ev(ptr noundef nonnull align 8 dereferenceable(80) %this) unnamed_addr #0 comdat align 2 {
entry:
  %this.addr = alloca ptr, align 8
  store ptr %this, ptr %this.addr, align 8
  %this1 = load ptr, ptr %this.addr, align 8
  %ptr = getelementptr inbounds %"class.icu_75::MaybeStackArray.3", ptr %this1, i32 0, i32 0
  %stackArray = getelementptr inbounds %"class.icu_75::MaybeStackArray.3", ptr %this1, i32 0, i32 3
  %arraydecay = getelementptr inbounds [8 x ptr], ptr %stackArray, i64 0, i64 0
  store ptr %arraydecay, ptr %ptr, align 8
  %capacity = getelementptr inbounds %"class.icu_75::MaybeStackArray.3", ptr %this1, i32 0, i32 1
  store i32 8, ptr %capacity, align 8
  %needToRelease = getelementptr inbounds %"class.icu_75::MaybeStackArray.3", ptr %this1, i32 0, i32 2
  store i8 0, ptr %needToRelease, align 4
  ret void
}

; Function Attrs: mustprogress nounwind uwtable
define linkonce_odr void @_ZN6icu_7512ResourceSinkC2Ev(ptr noundef nonnull align 8 dereferenceable(8) %this) unnamed_addr #0 comdat align 2 {
entry:
  %this.addr = alloca ptr, align 8
  store ptr %this, ptr %this.addr, align 8
  %this1 = load ptr, ptr %this.addr, align 8
  call void @_ZN6icu_757UObjectC2Ev(ptr noundef nonnull align 8 dereferenceable(8) %this1) #8
  store ptr getelementptr inbounds ({ [6 x ptr] }, ptr @_ZTVN6icu_7512ResourceSinkE, i32 0, i32 0, i32 2), ptr %this1, align 8
  ret void
}

; Function Attrs: mustprogress nounwind uwtable
define linkonce_odr void @_ZN6icu_7516LocalPointerBaseI15UResourceBundleEC2EPS1_(ptr noundef nonnull align 8 dereferenceable(8) %this, ptr noundef %p) unnamed_addr #0 comdat align 2 {
entry:
  %this.addr = alloca ptr, align 8
  %p.addr = alloca ptr, align 8
  store ptr %this, ptr %this.addr, align 8
  store ptr %p, ptr %p.addr, align 8
  %this1 = load ptr, ptr %this.addr, align 8
  %ptr = getelementptr inbounds %"class.icu_75::LocalPointerBase", ptr %this1, i32 0, i32 0
  %0 = load ptr, ptr %p.addr, align 8
  store ptr %0, ptr %ptr, align 8
  ret void
}

; Function Attrs: mustprogress uwtable
define linkonce_odr void @_ZN6icu_7510MemoryPoolINS_5units14UnitPreferenceELi8EEC2Ev(ptr noundef nonnull align 8 dereferenceable(88) %this) unnamed_addr #1 comdat align 2 {
entry:
  %this.addr = alloca ptr, align 8
  store ptr %this, ptr %this.addr, align 8
  %this1 = load ptr, ptr %this.addr, align 8
  %fCount = getelementptr inbounds %"class.icu_75::MemoryPool.5", ptr %this1, i32 0, i32 0
  store i32 0, ptr %fCount, align 8
  %fPool = getelementptr inbounds %"class.icu_75::MemoryPool.5", ptr %this1, i32 0, i32 1
  call void @_ZN6icu_7515MaybeStackArrayIPNS_5units14UnitPreferenceELi8EEC2Ev(ptr noundef nonnull align 8 dereferenceable(80) %fPool)
  ret void
}

; Function Attrs: mustprogress uwtable
define linkonce_odr void @_ZN6icu_7510MemoryPoolINS_5units22UnitPreferenceMetadataELi8EEC2Ev(ptr noundef nonnull align 8 dereferenceable(88) %this) unnamed_addr #1 comdat align 2 {
entry:
  %this.addr = alloca ptr, align 8
  store ptr %this, ptr %this.addr, align 8
  %this1 = load ptr, ptr %this.addr, align 8
  %fCount = getelementptr inbounds %"class.icu_75::MemoryPool.2", ptr %this1, i32 0, i32 0
  store i32 0, ptr %fCount, align 8
  %fPool = getelementptr inbounds %"class.icu_75::MemoryPool.2", ptr %this1, i32 0, i32 1
  call void @_ZN6icu_7515MaybeStackArrayIPNS_5units22UnitPreferenceMetadataELi8EEC2Ev(ptr noundef nonnull align 8 dereferenceable(80) %fPool)
  ret void
}

; Function Attrs: mustprogress nounwind uwtable
define internal void @_ZN6icu_755units12_GLOBAL__N_119UnitPreferencesSinkD2Ev(ptr noundef nonnull align 8 dereferenceable(24) %this) unnamed_addr #0 align 2 {
entry:
  %this.addr = alloca ptr, align 8
  store ptr %this, ptr %this.addr, align 8
  %this1 = load ptr, ptr %this.addr, align 8
  call void @_ZN6icu_7512ResourceSinkD2Ev(ptr noundef nonnull align 8 dereferenceable(8) %this1) #8
  ret void
}

; Function Attrs: mustprogress nounwind uwtable
define linkonce_odr noundef ptr @_ZNK6icu_7516LocalPointerBaseI15UResourceBundleE8getAliasEv(ptr noundef nonnull align 8 dereferenceable(8) %this) #0 comdat align 2 {
entry:
  %this.addr = alloca ptr, align 8
  store ptr %this, ptr %this.addr, align 8
  %this1 = load ptr, ptr %this.addr, align 8
  %ptr = getelementptr inbounds %"class.icu_75::LocalPointerBase", ptr %this1, i32 0, i32 0
  %0 = load ptr, ptr %ptr, align 8
  ret ptr %0
}

; Function Attrs: mustprogress nounwind uwtable
define internal void @_ZN6icu_755units12_GLOBAL__N_119UnitPreferencesSinkC2EPNS_16MaybeStackVectorINS0_14UnitPreferenceELi8EEEPNS3_INS0_22UnitPreferenceMetadataELi8EEE(ptr noundef nonnull align 8 dereferenceable(24) %this, ptr noundef %outPrefs, ptr noundef %outMetadata) unnamed_addr #0 align 2 {
entry:
  %this.addr = alloca ptr, align 8
  %outPrefs.addr = alloca ptr, align 8
  %outMetadata.addr = alloca ptr, align 8
  store ptr %this, ptr %this.addr, align 8
  store ptr %outPrefs, ptr %outPrefs.addr, align 8
  store ptr %outMetadata, ptr %outMetadata.addr, align 8
  %this1 = load ptr, ptr %this.addr, align 8
  call void @_ZN6icu_7512ResourceSinkC2Ev(ptr noundef nonnull align 8 dereferenceable(8) %this1)
  store ptr getelementptr inbounds ({ [6 x ptr] }, ptr @_ZTVN6icu_755units12_GLOBAL__N_119UnitPreferencesSinkE, i32 0, i32 0, i32 2), ptr %this1, align 8
  %preferences = getelementptr inbounds %"class.icu_75::units::(anonymous namespace)::UnitPreferencesSink", ptr %this1, i32 0, i32 1
  %0 = load ptr, ptr %outPrefs.addr, align 8
  store ptr %0, ptr %preferences, align 8
  %metadata = getelementptr inbounds %"class.icu_75::units::(anonymous namespace)::UnitPreferencesSink", ptr %this1, i32 0, i32 2
  %1 = load ptr, ptr %outMetadata.addr, align 8
  store ptr %1, ptr %metadata, align 8
  ret void
}

; Function Attrs: mustprogress uwtable
define linkonce_odr void @_ZN6icu_7527LocalUResourceBundlePointerC2EP15UResourceBundle(ptr noundef nonnull align 8 dereferenceable(8) %this, ptr noundef %p) unnamed_addr #1 comdat align 2 {
entry:
  %this.addr = alloca ptr, align 8
  %p.addr = alloca ptr, align 8
  store ptr %this, ptr %this.addr, align 8
  store ptr %p, ptr %p.addr, align 8
  %this1 = load ptr, ptr %this.addr, align 8
  %0 = load ptr, ptr %p.addr, align 8
  call void @_ZN6icu_7516LocalPointerBaseI15UResourceBundleEC2EPS1_(ptr noundef nonnull align 8 dereferenceable(8) %this1, ptr noundef %0)
  ret void
}

; Function Attrs: mustprogress uwtable
define linkonce_odr void @_ZN6icu_7516MaybeStackVectorINS_5units14UnitPreferenceELi8EEC2Ev(ptr noundef nonnull align 8 dereferenceable(88) %this) unnamed_addr #1 comdat align 2 {
entry:
  %this.addr = alloca ptr, align 8
  store ptr %this, ptr %this.addr, align 8
  %this1 = load ptr, ptr %this.addr, align 8
  call void @_ZN6icu_7510MemoryPoolINS_5units14UnitPreferenceELi8EEC2Ev(ptr noundef nonnull align 8 dereferenceable(88) %this1)
  ret void
}

; Function Attrs: mustprogress uwtable
define linkonce_odr void @_ZN6icu_7516MaybeStackVectorINS_5units22UnitPreferenceMetadataELi8EEC2Ev(ptr noundef nonnull align 8 dereferenceable(88) %this) unnamed_addr #1 comdat align 2 {
entry:
  %this.addr = alloca ptr, align 8
  store ptr %this, ptr %this.addr, align 8
  %this1 = load ptr, ptr %this.addr, align 8
  call void @_ZN6icu_7510MemoryPoolINS_5units22UnitPreferenceMetadataELi8EEC2Ev(ptr noundef nonnull align 8 dereferenceable(88) %this1)
  ret void
}

; Function Attrs: mustprogress uwtable
define void @_ZN6icu_755units15UnitPreferencesC2ER10UErrorCode(ptr noundef nonnull align 8 dereferenceable(176) %this, ptr noundef nonnull align 4 dereferenceable(4) %status) unnamed_addr #1 align 2 personality ptr @__gxx_personality_v0 {
entry:
  %this.addr = alloca ptr, align 8
  %status.addr = alloca ptr, align 8
  %exn.slot = alloca ptr, align 8
  %ehselector.slot = alloca i32, align 4
  %unitsBundle = alloca %"class.icu_75::LocalUResourceBundlePointer", align 8
  %sink = alloca %"class.icu_75::units::(anonymous namespace)::UnitPreferencesSink", align 8
  store ptr %this, ptr %this.addr, align 8
  store ptr %status, ptr %status.addr, align 8
  %this1 = load ptr, ptr %this.addr, align 8
  %metadata_ = getelementptr inbounds %"class.icu_75::units::UnitPreferences", ptr %this1, i32 0, i32 0
  call void @_ZN6icu_7516MaybeStackVectorINS_5units22UnitPreferenceMetadataELi8EEC2Ev(ptr noundef nonnull align 8 dereferenceable(88) %metadata_)
  %unitPrefs_ = getelementptr inbounds %"class.icu_75::units::UnitPreferences", ptr %this1, i32 0, i32 1
  invoke void @_ZN6icu_7516MaybeStackVectorINS_5units14UnitPreferenceELi8EEC2Ev(ptr noundef nonnull align 8 dereferenceable(88) %unitPrefs_)
          to label %invoke.cont unwind label %lpad

invoke.cont:                                      ; preds = %entry
  %0 = load ptr, ptr %status.addr, align 8
  %call = invoke ptr @ures_openDirect_75(ptr noundef null, ptr noundef @.str, ptr noundef %0)
          to label %invoke.cont3 unwind label %lpad2

invoke.cont3:                                     ; preds = %invoke.cont
  invoke void @_ZN6icu_7527LocalUResourceBundlePointerC2EP15UResourceBundle(ptr noundef nonnull align 8 dereferenceable(8) %unitsBundle, ptr noundef %call)
          to label %invoke.cont4 unwind label %lpad2

invoke.cont4:                                     ; preds = %invoke.cont3
  %unitPrefs_5 = getelementptr inbounds %"class.icu_75::units::UnitPreferences", ptr %this1, i32 0, i32 1
  %metadata_6 = getelementptr inbounds %"class.icu_75::units::UnitPreferences", ptr %this1, i32 0, i32 0
  invoke void @_ZN6icu_755units12_GLOBAL__N_119UnitPreferencesSinkC2EPNS_16MaybeStackVectorINS0_14UnitPreferenceELi8EEEPNS3_INS0_22UnitPreferenceMetadataELi8EEE(ptr noundef nonnull align 8 dereferenceable(24) %sink, ptr noundef %unitPrefs_5, ptr noundef %metadata_6)
          to label %invoke.cont8 unwind label %lpad7

invoke.cont8:                                     ; preds = %invoke.cont4
  %call11 = invoke noundef ptr @_ZNK6icu_7516LocalPointerBaseI15UResourceBundleE8getAliasEv(ptr noundef nonnull align 8 dereferenceable(8) %unitsBundle)
          to label %invoke.cont10 unwind label %lpad9

invoke.cont10:                                    ; preds = %invoke.cont8
  %1 = load ptr, ptr %status.addr, align 8
  invoke void @ures_getAllItemsWithFallback_75(ptr noundef %call11, ptr noundef @.str.2, ptr noundef nonnull align 8 dereferenceable(8) %sink, ptr noundef nonnull align 4 dereferenceable(4) %1)
          to label %invoke.cont12 unwind label %lpad9

invoke.cont12:                                    ; preds = %invoke.cont10
  call void @_ZN6icu_755units12_GLOBAL__N_119UnitPreferencesSinkD2Ev(ptr noundef nonnull align 8 dereferenceable(24) %sink) #8
  call void @_ZN6icu_7527LocalUResourceBundlePointerD2Ev(ptr noundef nonnull align 8 dereferenceable(8) %unitsBundle) #8
  ret void

lpad:                                             ; preds = %entry
  %2 = landingpad { ptr, i32 }
          cleanup
  %3 = extractvalue { ptr, i32 } %2, 0
  store ptr %3, ptr %exn.slot, align 8
  %4 = extractvalue { ptr, i32 } %2, 1
  store i32 %4, ptr %ehselector.slot, align 4
  br label %ehcleanup14

lpad2:                                            ; preds = %invoke.cont3, %invoke.cont
  %5 = landingpad { ptr, i32 }
          cleanup
  %6 = extractvalue { ptr, i32 } %5, 0
  store ptr %6, ptr %exn.slot, align 8
  %7 = extractvalue { ptr, i32 } %5, 1
  store i32 %7, ptr %ehselector.slot, align 4
  br label %ehcleanup13

lpad7:                                            ; preds = %invoke.cont4
  %8 = landingpad { ptr, i32 }
          cleanup
  %9 = extractvalue { ptr, i32 } %8, 0
  store ptr %9, ptr %exn.slot, align 8
  %10 = extractvalue { ptr, i32 } %8, 1
  store i32 %10, ptr %ehselector.slot, align 4
  br label %ehcleanup

lpad9:                                            ; preds = %invoke.cont10, %invoke.cont8
  %11 = landingpad { ptr, i32 }
          cleanup
  %12 = extractvalue { ptr, i32 } %11, 0
  store ptr %12, ptr %exn.slot, align 8
  %13 = extractvalue { ptr, i32 } %11, 1
  store i32 %13, ptr %ehselector.slot, align 4
  call void @_ZN6icu_755units12_GLOBAL__N_119UnitPreferencesSinkD2Ev(ptr noundef nonnull align 8 dereferenceable(24) %sink) #8
  br label %ehcleanup

ehcleanup:                                        ; preds = %lpad9, %lpad7
  call void @_ZN6icu_7527LocalUResourceBundlePointerD2Ev(ptr noundef nonnull align 8 dereferenceable(8) %unitsBundle) #8
  br label %ehcleanup13

ehcleanup13:                                      ; preds = %ehcleanup, %lpad2
  call void @_ZN6icu_7516MaybeStackVectorINS_5units14UnitPreferenceELi8EED2Ev(ptr noundef nonnull align 8 dereferenceable(88) %unitPrefs_) #8
  br label %ehcleanup14

ehcleanup14:                                      ; preds = %ehcleanup13, %lpad
  call void @_ZN6icu_7516MaybeStackVectorINS_5units22UnitPreferenceMetadataELi8EED2Ev(ptr noundef nonnull align 8 dereferenceable(88) %metadata_) #8
  br label %eh.resume

eh.resume:                                        ; preds = %ehcleanup14
  %exn = load ptr, ptr %exn.slot, align 8
  %sel = load i32, ptr %ehselector.slot, align 4
  %lpad.val = insertvalue { ptr, i32 } poison, ptr %exn, 0
  %lpad.val15 = insertvalue { ptr, i32 } %lpad.val, i32 %sel, 1
  resume { ptr, i32 } %lpad.val15
}