; Function Attrs: mustprogress uwtable
define void @_ZN6icu_755units15UnitPreferencesC2ER10UErrorCode(ptr noundef nonnull align 8 dereferenceable(176) %this, ptr noundef nonnull align 4 dereferenceable(4) %status) unnamed_addr #1 align 2 personality ptr @__gxx_personality_v0 {
invoke.cont:
  %unitsBundle = alloca %"class.icu_75::LocalUResourceBundlePointer", align 8
  %sink = alloca %"class.icu_75::units::(anonymous namespace)::UnitPreferencesSink", align 8
  store i32 0, ptr %this, align 8
  %fPool.i.i = getelementptr inbounds i8, ptr %this, i64 8
  %stackArray.i.i.i = getelementptr inbounds i8, ptr %this, i64 24
  store ptr %stackArray.i.i.i, ptr %fPool.i.i, align 8
  %capacity.i.i.i = getelementptr inbounds i8, ptr %this, i64 16
  store i32 8, ptr %capacity.i.i.i, align 8
  %needToRelease.i.i.i = getelementptr inbounds i8, ptr %this, i64 20
  store i8 0, ptr %needToRelease.i.i.i, align 4
  %unitPrefs_ = getelementptr inbounds i8, ptr %this, i64 88
  store i32 0, ptr %unitPrefs_, align 8
  %fPool.i.i4 = getelementptr inbounds i8, ptr %this, i64 96
  %stackArray.i.i.i5 = getelementptr inbounds i8, ptr %this, i64 112
  store ptr %stackArray.i.i.i5, ptr %fPool.i.i4, align 8
  %capacity.i.i.i6 = getelementptr inbounds i8, ptr %this, i64 104
  store i32 8, ptr %capacity.i.i.i6, align 8
  %needToRelease.i.i.i7 = getelementptr inbounds i8, ptr %this, i64 108
  store i8 0, ptr %needToRelease.i.i.i7, align 4
  %call = invoke ptr @ures_openDirect_75(ptr noundef null, ptr noundef nonnull @.str, ptr noundef nonnull %status)
          to label %invoke.cont4 unwind label %lpad2

invoke.cont4:                                     ; preds = %invoke.cont
  store ptr %call, ptr %unitsBundle, align 8
  store ptr getelementptr inbounds ({ [6 x ptr] }, ptr @_ZTVN6icu_755units12_GLOBAL__N_119UnitPreferencesSinkE, i64 0, i32 0, i64 2), ptr %sink, align 8
  %preferences.i = getelementptr inbounds i8, ptr %sink, i64 8
  store ptr %unitPrefs_, ptr %preferences.i, align 8
  %metadata.i = getelementptr inbounds i8, ptr %sink, i64 16
  store ptr %this, ptr %metadata.i, align 8
  invoke void @ures_getAllItemsWithFallback_75(ptr noundef %call, ptr noundef nonnull @.str.2, ptr noundef nonnull align 8 dereferenceable(8) %sink, ptr noundef nonnull align 4 dereferenceable(4) %status)
          to label %invoke.cont12 unwind label %lpad9

invoke.cont12:                                    ; preds = %invoke.cont4
  call void @_ZN6icu_7512ResourceSinkD2Ev(ptr noundef nonnull align 8 dereferenceable(8) %sink) #15
  %cmp.not.i = icmp eq ptr %call, null
  br i1 %cmp.not.i, label %_ZN6icu_7527LocalUResourceBundlePointerD2Ev.exit, label %if.then.i

if.then.i:                                        ; preds = %invoke.cont12
  invoke void @ures_close_75(ptr noundef nonnull %call)
          to label %_ZN6icu_7527LocalUResourceBundlePointerD2Ev.exit unwind label %terminate.lpad.i

terminate.lpad.i:                                 ; preds = %if.then.i
  %0 = landingpad { ptr, i32 }
          catch ptr null
  %1 = extractvalue { ptr, i32 } %0, 0
  call void @__clang_call_terminate(ptr %1) #17
  unreachable

_ZN6icu_7527LocalUResourceBundlePointerD2Ev.exit: ; preds = %invoke.cont12, %if.then.i
  ret void

lpad2:                                            ; preds = %invoke.cont
  %2 = landingpad { ptr, i32 }
          cleanup
  br label %ehcleanup13

lpad9:                                            ; preds = %invoke.cont4
  %3 = landingpad { ptr, i32 }
          cleanup
  call void @_ZN6icu_7512ResourceSinkD2Ev(ptr noundef nonnull align 8 dereferenceable(8) %sink) #15
  call void @_ZN6icu_7527LocalUResourceBundlePointerD2Ev(ptr noundef nonnull align 8 dereferenceable(8) %unitsBundle) #15
  br label %ehcleanup13

ehcleanup13:                                      ; preds = %lpad9, %lpad2
  %.pn = phi { ptr, i32 } [ %3, %lpad9 ], [ %2, %lpad2 ]
  call void @_ZN6icu_7516MaybeStackVectorINS_5units14UnitPreferenceELi8EED2Ev(ptr noundef nonnull align 8 dereferenceable(88) %unitPrefs_) #15
  call void @_ZN6icu_7516MaybeStackVectorINS_5units22UnitPreferenceMetadataELi8EED2Ev(ptr noundef nonnull align 8 dereferenceable(88) %this) #15
  resume { ptr, i32 } %.pn
}